target datalayout = "e-m:e-p270:32:32-p271:32:32-p272:64:64-i64:64-i128:128-f80:128-n8:16:32:64-S128"
target triple = "x86_64-pc-linux-gnu"

%struct._object = type { %union.anon, ptr }
%union.anon = type { i64 }
%struct._curses_panel_state = type { ptr, ptr }
%struct.anon = type { i32, i32 }

; Function Attrs: alwaysinline nounwind uwtable
define internal i32 @_Py_IsImmortal(ptr noundef %0) #4 {
  %2 = alloca ptr, align 8
  store ptr %0, ptr %2, align 8, !tbaa !3
  %3 = load ptr, ptr %2, align 8, !tbaa !3
  %4 = getelementptr inbounds nuw %struct._object, ptr %3, i32 0, i32 0
  %5 = getelementptr inbounds nuw %struct.anon, ptr %4, i32 0, i32 0
  %6 = load i32, ptr %5, align 8, !tbaa !41
  %7 = icmp slt i32 %6, 0
  %8 = zext i1 %7 to i32
  ret i32 %8
}

; Function Attrs: alwaysinline nounwind uwtable
define internal void @Py_DECREF(ptr noundef %0) #4 {
  %2 = alloca ptr, align 8
  store ptr %0, ptr %2, align 8, !tbaa !3
  %3 = load ptr, ptr %2, align 8, !tbaa !3
  %4 = call i32 @_Py_IsImmortal(ptr noundef %3)
  %5 = icmp ne i32 %4, 0
  br i1 %5, label %6, label %7

6:                                                ; preds = %1
  br label %16

7:                                                ; preds = %1
  %8 = load ptr, ptr %2, align 8, !tbaa !3
  %9 = getelementptr inbounds nuw %struct._object, ptr %8, i32 0, i32 0
  %10 = getelementptr inbounds nuw %struct.anon, ptr %9, i32 0, i32 0
  %11 = load i32, ptr %10, align 8, !tbaa !41
  %12 = add i32 %11, -1
  store i32 %12, ptr %10, align 8, !tbaa !41
  %13 = icmp eq i32 %12, 0
  br i1 %13, label %14, label %16

14:                                               ; preds = %7
  %15 = load ptr, ptr %2, align 8, !tbaa !3
  call void @_Py_Dealloc(ptr noundef %15)
  br label %16

16:                                               ; preds = %6, %14, %7
  ret void
}

; Function Attrs: inlinehint nounwind uwtable
define internal ptr @get_curses_panel_state(ptr noundef %0) #3 {
  %2 = alloca ptr, align 8
  %3 = alloca ptr, align 8
  store ptr %0, ptr %2, align 8, !tbaa !3
  call void @llvm.lifetime.start.p0(i64 8, ptr %3) #5
  %4 = load ptr, ptr %2, align 8, !tbaa !3
  %5 = call ptr @PyModule_GetState(ptr noundef %4)
  store ptr %5, ptr %3, align 8, !tbaa !8
  %6 = load ptr, ptr %3, align 8, !tbaa !8
  call void @llvm.lifetime.end.p0(i64 8, ptr %3) #5
  ret ptr %6
}

; Function Attrs: nounwind uwtable
define internal i32 @_curses_panel_clear(ptr noundef %0) #0 {
  %2 = alloca ptr, align 8
  %3 = alloca ptr, align 8
  %4 = alloca ptr, align 8
  %5 = alloca ptr, align 8
  %6 = alloca ptr, align 8
  %7 = alloca ptr, align 8
  store ptr %0, ptr %2, align 8, !tbaa !3
  call void @llvm.lifetime.start.p0(i64 8, ptr %3) #5
  %8 = load ptr, ptr %2, align 8, !tbaa !3
  %9 = call ptr @get_curses_panel_state(ptr noundef %8)
  store ptr %9, ptr %3, align 8, !tbaa !8
  br label %10

10:                                               ; preds = %1
  call void @llvm.lifetime.start.p0(i64 8, ptr %4) #5
  %11 = load ptr, ptr %3, align 8, !tbaa !8
  %12 = getelementptr inbounds nuw %struct._curses_panel_state, ptr %11, i32 0, i32 0
  store ptr %12, ptr %4, align 8, !tbaa !15
  call void @llvm.lifetime.start.p0(i64 8, ptr %5) #5
  %13 = load ptr, ptr %4, align 8, !tbaa !15
  %14 = load ptr, ptr %13, align 8, !tbaa !3
  store ptr %14, ptr %5, align 8, !tbaa !3
  %15 = load ptr, ptr %5, align 8, !tbaa !3
  %16 = icmp ne ptr %15, null
  br i1 %16, label %17, label %20

17:                                               ; preds = %10
  %18 = load ptr, ptr %4, align 8, !tbaa !15
  store ptr null, ptr %18, align 8, !tbaa !3
  %19 = load ptr, ptr %5, align 8, !tbaa !3
  call void @Py_DECREF(ptr noundef %19)
  br label %20

20:                                               ; preds = %17, %10
  call void @llvm.lifetime.end.p0(i64 8, ptr %5) #5
  call void @llvm.lifetime.end.p0(i64 8, ptr %4) #5
  br label %21

21:                                               ; preds = %20
  br label %22

22:                                               ; preds = %21
  br label %23

23:                                               ; preds = %22
  call void @llvm.lifetime.start.p0(i64 8, ptr %6) #5
  %24 = load ptr, ptr %3, align 8, !tbaa !8
  %25 = getelementptr inbounds nuw %struct._curses_panel_state, ptr %24, i32 0, i32 1
  store ptr %25, ptr %6, align 8, !tbaa !17
  call void @llvm.lifetime.start.p0(i64 8, ptr %7) #5
  %26 = load ptr, ptr %6, align 8, !tbaa !17
  %27 = load ptr, ptr %26, align 8, !tbaa !19
  store ptr %27, ptr %7, align 8, !tbaa !19
  %28 = load ptr, ptr %7, align 8, !tbaa !19
  %29 = icmp ne ptr %28, null
  br i1 %29, label %30, label %33

30:                                               ; preds = %23
  %31 = load ptr, ptr %6, align 8, !tbaa !17
  store ptr null, ptr %31, align 8, !tbaa !19
  %32 = load ptr, ptr %7, align 8, !tbaa !19
  call void @Py_DECREF(ptr noundef %32)
  br label %33

33:                                               ; preds = %30, %23
  call void @llvm.lifetime.end.p0(i64 8, ptr %7) #5
  call void @llvm.lifetime.end.p0(i64 8, ptr %6) #5
  br label %34

34:                                               ; preds = %33
  br label %35

35:                                               ; preds = %34
  call void @llvm.lifetime.end.p0(i64 8, ptr %3) #5
  ret i32 0
}